; Function Attrs: mustprogress uwtable
define void @_ZNK6casadi14LinsolInternal8generateERNS_13CodeGeneratorERKNSt7__cxx1112basic_stringIcSt11char_traitsIcESaIcEEESA_xb(ptr noundef nonnull align 8 dereferenceable(184) %0, ptr noundef nonnull align 8 dereferenceable(3289) %1, ptr nonnull readnone align 8 captures(none) %2, ptr nonnull readnone align 8 captures(none) %3, i64 %4, i1 zeroext %5) unnamed_addr #3 align 2 personality ptr @__gxx_personality_v0 {
  %7 = alloca %"class.std::__cxx11::basic_string", align 8
  %8 = tail call noundef nonnull align 8 dereferenceable(3289) ptr @_ZN6casadi13CodeGeneratorlsIPKcEERS0_T_(ptr noundef nonnull align 8 dereferenceable(3289) %1, ptr noundef nonnull @.str.15)
  call void @llvm.lifetime.start.p0(i64 32, ptr nonnull %7) #25
  %9 = load ptr, ptr %0, align 8, !tbaa !3
  %10 = getelementptr inbounds nuw i8, ptr %9, i64 16
  %11 = load ptr, ptr %10, align 8
  call void %11(ptr dead_on_unwind nonnull writable sret(%"class.std::__cxx11::basic_string") align 8 %7, ptr noundef nonnull align 8 dereferenceable(24) %0)
  %12 = invoke noundef nonnull align 8 dereferenceable(3289) ptr @_ZN6casadi13CodeGeneratorlsERKNSt7__cxx1112basic_stringIcSt11char_traitsIcESaIcEEE(ptr noundef nonnull align 8 dereferenceable(3289) %8, ptr noundef nonnull align 8 dereferenceable(32) %7)
          to label %13 unwind label %24

13:                                               ; preds = %6
  %14 = invoke noundef nonnull align 8 dereferenceable(3289) ptr @_ZN6casadi13CodeGeneratorlsIPKcEERS0_T_(ptr noundef nonnull align 8 dereferenceable(3289) %12, ptr noundef nonnull @.str.16)
          to label %15 unwind label %24

15:                                               ; preds = %13
  %16 = load ptr, ptr %7, align 8, !tbaa !11
  %17 = getelementptr inbounds nuw i8, ptr %7, i64 16
  %18 = icmp eq ptr %16, %17
  br i1 %18, label %_ZNKSt7__cxx1112basic_stringIcSt11char_traitsIcESaIcEE11_M_is_localEv.exit.thread.i.i, label %_ZNKSt7__cxx1112basic_stringIcSt11char_traitsIcESaIcEE11_M_is_localEv.exit.i.i

_ZNKSt7__cxx1112basic_stringIcSt11char_traitsIcESaIcEE11_M_is_localEv.exit.thread.i.i: ; preds = %15
  %19 = getelementptr inbounds nuw i8, ptr %7, i64 8
  %20 = load i64, ptr %19, align 8, !tbaa !16
  %21 = icmp ult i64 %20, 16
  call void @llvm.assume(i1 %21)
  br label %_ZNSt7__cxx1112basic_stringIcSt11char_traitsIcESaIcEED2Ev.exit

_ZNKSt7__cxx1112basic_stringIcSt11char_traitsIcESaIcEE11_M_is_localEv.exit.i.i: ; preds = %15
  %22 = load i64, ptr %17, align 8, !tbaa !17
  %23 = add i64 %22, 1
  call void @_ZdlPvm(ptr noundef %16, i64 noundef %23) #27
  br label %_ZNSt7__cxx1112basic_stringIcSt11char_traitsIcESaIcEED2Ev.exit

_ZNSt7__cxx1112basic_stringIcSt11char_traitsIcESaIcEED2Ev.exit: ; preds = %_ZNKSt7__cxx1112basic_stringIcSt11char_traitsIcESaIcEE11_M_is_localEv.exit.thread.i.i, %_ZNKSt7__cxx1112basic_stringIcSt11char_traitsIcESaIcEE11_M_is_localEv.exit.i.i
  call void @llvm.lifetime.end.p0(i64 32, ptr nonnull %7) #25
  ret void

24:                                               ; preds = %13, %6
  %25 = landingpad { ptr, i32 }
          cleanup
  %26 = load ptr, ptr %7, align 8, !tbaa !11
  %27 = getelementptr inbounds nuw i8, ptr %7, i64 16
  %28 = icmp eq ptr %26, %27
  br i1 %28, label %_ZNKSt7__cxx1112basic_stringIcSt11char_traitsIcESaIcEE11_M_is_localEv.exit.thread.i.i4, label %_ZNKSt7__cxx1112basic_stringIcSt11char_traitsIcESaIcEE11_M_is_localEv.exit.i.i3

_ZNKSt7__cxx1112basic_stringIcSt11char_traitsIcESaIcEE11_M_is_localEv.exit.thread.i.i4: ; preds = %24
  %29 = getelementptr inbounds nuw i8, ptr %7, i64 8
  %30 = load i64, ptr %29, align 8, !tbaa !16
  %31 = icmp ult i64 %30, 16
  call void @llvm.assume(i1 %31)
  br label %_ZNSt7__cxx1112basic_stringIcSt11char_traitsIcESaIcEED2Ev.exit5

_ZNKSt7__cxx1112basic_stringIcSt11char_traitsIcESaIcEE11_M_is_localEv.exit.i.i3: ; preds = %24
  %32 = load i64, ptr %27, align 8, !tbaa !17
  %33 = add i64 %32, 1
  call void @_ZdlPvm(ptr noundef %26, i64 noundef %33) #27
  br label %_ZNSt7__cxx1112basic_stringIcSt11char_traitsIcESaIcEED2Ev.exit5

_ZNSt7__cxx1112basic_stringIcSt11char_traitsIcESaIcEED2Ev.exit5: ; preds = %_ZNKSt7__cxx1112basic_stringIcSt11char_traitsIcESaIcEE11_M_is_localEv.exit.thread.i.i4, %_ZNKSt7__cxx1112basic_stringIcSt11char_traitsIcESaIcEE11_M_is_localEv.exit.i.i3
  call void @llvm.lifetime.end.p0(i64 32, ptr nonnull %7) #25
  resume { ptr, i32 } %25
}